; Function Attrs: mustprogress uwtable
define noundef i32 @_ZN3zmq20stream_engine_base_t29push_one_then_decode_and_pushEPNS_5msg_tE(ptr nocapture noundef nonnull align 8 dereferenceable(1689) %this, ptr noundef %msg_) #0 align 2 {
entry:
  %_session = getelementptr inbounds i8, ptr %this, i64 1672
  %0 = load ptr, ptr %_session, align 8
  %vtable = load ptr, ptr %0, align 8
  %vfn = getelementptr inbounds i8, ptr %vtable, i64 232
  %1 = load ptr, ptr %vfn, align 8
  %call = tail call noundef i32 %1(ptr noundef nonnull align 8 dereferenceable(1624) %0, ptr noundef %msg_)
  %cmp = icmp eq i32 %call, 0
  br i1 %cmp, label %if.then, label %if.end

if.then:                                          ; preds = %entry
  %_process_msg = getelementptr inbounds i8, ptr %this, i64 1432
  store i64 105, ptr %_process_msg, align 8
  %_process_msg.repack2 = getelementptr inbounds i8, ptr %this, i64 1440
  store i64 0, ptr %_process_msg.repack2, align 8
  br label %if.end

if.end:                                           ; preds = %if.then, %entry
  ret i32 %call
}